; Function Attrs: mustprogress uwtable
define noundef nonnull ptr @jsonnet_json_make_null(ptr nocapture noundef readnone %0) local_unnamed_addr #6 personality ptr @__gxx_personality_v0 {
  %2 = tail call noalias noundef nonnull dereferenceable(120) ptr @_Znwm(i64 noundef 120) #31
  tail call void @llvm.memset.p0.i64(ptr noundef nonnull align 16 dereferenceable(120) %2, i8 0, i64 120, i1 false)
  %3 = getelementptr inbounds i8, ptr %2, i64 8
  tail call void @_ZNSt7__cxx1112basic_stringIcSt11char_traitsIcESaIcEEC1Ev(ptr noundef nonnull align 8 dereferenceable(32) %3) #30
  %4 = getelementptr inbounds i8, ptr %2, i64 48
  tail call void @llvm.memset.p0.i64(ptr noundef nonnull align 8 dereferenceable(24) %4, i8 0, i64 24, i1 false)
  %5 = getelementptr inbounds i8, ptr %2, i64 80
  store i32 0, ptr %5, align 8
  %6 = getelementptr inbounds i8, ptr %2, i64 88
  store ptr null, ptr %6, align 8
  %7 = getelementptr inbounds i8, ptr %2, i64 96
  store ptr %5, ptr %7, align 8
  %8 = getelementptr inbounds i8, ptr %2, i64 104
  store ptr %5, ptr %8, align 8
  %9 = getelementptr inbounds i8, ptr %2, i64 112
  store i64 0, ptr %9, align 8
  store i32 2, ptr %2, align 8
  ret ptr %2
}